; ModuleID = '48/793.c'
source_filename = "48/793.c"
target datalayout = "e-m:e-p270:32:32-p271:32:32-p272:64:64-i64:64-f80:128-n8:16:32:64-S128"
target triple = "x86_64-pc-linux-gnu"

@.str = private unnamed_addr constant [6 x i8] c"%d %d\00", align 1
@.str.1 = private unnamed_addr constant [3 x i8] c"%d\00", align 1
@.str.2 = private unnamed_addr constant [2 x i8] c" \00", align 1
@.str.3 = private unnamed_addr constant [2 x i8] c"\0A\00", align 1

; Function Attrs: noinline nounwind uwtable
define dso_local i32 @main() #0 {
  %1 = alloca i32, align 4
  %2 = alloca [9 x [9 x i32]], align 16
  %3 = alloca [9 x [9 x i32]], align 16
  %4 = alloca i32, align 4
  %5 = alloca i32, align 4
  %6 = alloca i32, align 4
  %7 = alloca i32, align 4
  %8 = alloca i32, align 4
  %9 = alloca i32, align 4
  %10 = alloca i32, align 4
  %11 = alloca i32, align 4
  %12 = alloca i32, align 4
  %13 = alloca i32, align 4
  store i32 0, i32* %1, align 4
  %14 = bitcast [9 x [9 x i32]]* %2 to i8*
  call void @llvm.memset.p0i8.i64(i8* align 16 %14, i8 0, i64 324, i1 false)
  %15 = call i32 (i8*, ...) @__isoc99_scanf(i8* getelementptr inbounds ([6 x i8], [6 x i8]* @.str, i64 0, i64 0), i32* %9, i32* %10)
  %16 = load i32, i32* %9, align 4
  %17 = getelementptr inbounds [9 x [9 x i32]], [9 x [9 x i32]]* %2, i64 0, i64 4
  %18 = getelementptr inbounds [9 x i32], [9 x i32]* %17, i64 0, i64 4
  store i32 %16, i32* %18, align 16
  store i32 0, i32* %13, align 4
  br label %19

19:                                               ; preds = %141, %0
  %20 = load i32, i32* %13, align 4
  %21 = load i32, i32* %10, align 4
  %22 = icmp slt i32 %20, %21
  br i1 %22, label %23, label %144

23:                                               ; preds = %19
  store i32 0, i32* %6, align 4
  br label %24

24:                                               ; preds = %42, %23
  %25 = load i32, i32* %6, align 4
  %26 = icmp slt i32 %25, 9
  br i1 %26, label %27, label %45

27:                                               ; preds = %24
  store i32 0, i32* %7, align 4
  br label %28

28:                                               ; preds = %38, %27
  %29 = load i32, i32* %7, align 4
  %30 = icmp slt i32 %29, 9
  br i1 %30, label %31, label %41

31:                                               ; preds = %28
  %32 = load i32, i32* %6, align 4
  %33 = sext i32 %32 to i64
  %34 = getelementptr inbounds [9 x [9 x i32]], [9 x [9 x i32]]* %3, i64 0, i64 %33
  %35 = load i32, i32* %7, align 4
  %36 = sext i32 %35 to i64
  %37 = getelementptr inbounds [9 x i32], [9 x i32]* %34, i64 0, i64 %36
  store i32 0, i32* %37, align 4
  br label %38

38:                                               ; preds = %31
  %39 = load i32, i32* %7, align 4
  %40 = add nsw i32 %39, 1
  store i32 %40, i32* %7, align 4
  br label %28

41:                                               ; preds = %28
  br label %42

42:                                               ; preds = %41
  %43 = load i32, i32* %6, align 4
  %44 = add nsw i32 %43, 1
  store i32 %44, i32* %6, align 4
  br label %24

45:                                               ; preds = %24
  store i32 1, i32* %6, align 4
  br label %46

46:                                               ; preds = %108, %45
  %47 = load i32, i32* %6, align 4
  %48 = icmp slt i32 %47, 8
  br i1 %48, label %49, label %111

49:                                               ; preds = %46
  store i32 1, i32* %7, align 4
  br label %50

50:                                               ; preds = %104, %49
  %51 = load i32, i32* %7, align 4
  %52 = icmp slt i32 %51, 8
  br i1 %52, label %53, label %107

53:                                               ; preds = %50
  %54 = load i32, i32* %6, align 4
  %55 = sext i32 %54 to i64
  %56 = getelementptr inbounds [9 x [9 x i32]], [9 x [9 x i32]]* %2, i64 0, i64 %55
  %57 = load i32, i32* %7, align 4
  %58 = sext i32 %57 to i64
  %59 = getelementptr inbounds [9 x i32], [9 x i32]* %56, i64 0, i64 %58
  %60 = load i32, i32* %59, align 4
  %61 = load i32, i32* %6, align 4
  %62 = sext i32 %61 to i64
  %63 = getelementptr inbounds [9 x [9 x i32]], [9 x [9 x i32]]* %3, i64 0, i64 %62
  %64 = load i32, i32* %7, align 4
  %65 = sext i32 %64 to i64
  %66 = getelementptr inbounds [9 x i32], [9 x i32]* %63, i64 0, i64 %65
  %67 = load i32, i32* %66, align 4
  %68 = add nsw i32 %67, %60
  store i32 %68, i32* %66, align 4
  store i32 -1, i32* %4, align 4
  br label %69

69:                                               ; preds = %100, %53
  %70 = load i32, i32* %4, align 4
  %71 = icmp slt i32 %70, 2
  br i1 %71, label %72, label %103

72:                                               ; preds = %69
  store i32 -1, i32* %5, align 4
  br label %73

73:                                               ; preds = %96, %72
  %74 = load i32, i32* %5, align 4
  %75 = icmp slt i32 %74, 2
  br i1 %75, label %76, label %99

76:                                               ; preds = %73
  %77 = load i32, i32* %6, align 4
  %78 = sext i32 %77 to i64
  %79 = getelementptr inbounds [9 x [9 x i32]], [9 x [9 x i32]]* %2, i64 0, i64 %78
  %80 = load i32, i32* %7, align 4
  %81 = sext i32 %80 to i64
  %82 = getelementptr inbounds [9 x i32], [9 x i32]* %79, i64 0, i64 %81
  %83 = load i32, i32* %82, align 4
  %84 = load i32, i32* %6, align 4
  %85 = load i32, i32* %4, align 4
  %86 = add nsw i32 %84, %85
  %87 = sext i32 %86 to i64
  %88 = getelementptr inbounds [9 x [9 x i32]], [9 x [9 x i32]]* %3, i64 0, i64 %87
  %89 = load i32, i32* %7, align 4
  %90 = load i32, i32* %5, align 4
  %91 = add nsw i32 %89, %90
  %92 = sext i32 %91 to i64
  %93 = getelementptr inbounds [9 x i32], [9 x i32]* %88, i64 0, i64 %92
  %94 = load i32, i32* %93, align 4
  %95 = add nsw i32 %94, %83
  store i32 %95, i32* %93, align 4
  br label %96

96:                                               ; preds = %76
  %97 = load i32, i32* %5, align 4
  %98 = add nsw i32 %97, 1
  store i32 %98, i32* %5, align 4
  br label %73

99:                                               ; preds = %73
  br label %100

100:                                              ; preds = %99
  %101 = load i32, i32* %4, align 4
  %102 = add nsw i32 %101, 1
  store i32 %102, i32* %4, align 4
  br label %69

103:                                              ; preds = %69
  br label %104

104:                                              ; preds = %103
  %105 = load i32, i32* %7, align 4
  %106 = add nsw i32 %105, 1
  store i32 %106, i32* %7, align 4
  br label %50

107:                                              ; preds = %50
  br label %108

108:                                              ; preds = %107
  %109 = load i32, i32* %6, align 4
  %110 = add nsw i32 %109, 1
  store i32 %110, i32* %6, align 4
  br label %46

111:                                              ; preds = %46
  store i32 0, i32* %11, align 4
  br label %112

112:                                              ; preds = %137, %111
  %113 = load i32, i32* %11, align 4
  %114 = icmp slt i32 %113, 9
  br i1 %114, label %115, label %140

115:                                              ; preds = %112
  store i32 0, i32* %12, align 4
  br label %116

116:                                              ; preds = %133, %115
  %117 = load i32, i32* %12, align 4
  %118 = icmp slt i32 %117, 9
  br i1 %118, label %119, label %136

119:                                              ; preds = %116
  %120 = load i32, i32* %11, align 4
  %121 = sext i32 %120 to i64
  %122 = getelementptr inbounds [9 x [9 x i32]], [9 x [9 x i32]]* %3, i64 0, i64 %121
  %123 = load i32, i32* %12, align 4
  %124 = sext i32 %123 to i64
  %125 = getelementptr inbounds [9 x i32], [9 x i32]* %122, i64 0, i64 %124
  %126 = load i32, i32* %125, align 4
  %127 = load i32, i32* %11, align 4
  %128 = sext i32 %127 to i64
  %129 = getelementptr inbounds [9 x [9 x i32]], [9 x [9 x i32]]* %2, i64 0, i64 %128
  %130 = load i32, i32* %12, align 4
  %131 = sext i32 %130 to i64
  %132 = getelementptr inbounds [9 x i32], [9 x i32]* %129, i64 0, i64 %131
  store i32 %126, i32* %132, align 4
  br label %133

133:                                              ; preds = %119
  %134 = load i32, i32* %12, align 4
  %135 = add nsw i32 %134, 1
  store i32 %135, i32* %12, align 4
  br label %116

136:                                              ; preds = %116
  br label %137

137:                                              ; preds = %136
  %138 = load i32, i32* %11, align 4
  %139 = add nsw i32 %138, 1
  store i32 %139, i32* %11, align 4
  br label %112

140:                                              ; preds = %112
  br label %141

141:                                              ; preds = %140
  %142 = load i32, i32* %13, align 4
  %143 = add nsw i32 %142, 1
  store i32 %143, i32* %13, align 4
  br label %19

144:                                              ; preds = %19
  store i32 0, i32* %6, align 4
  br label %145

145:                                              ; preds = %184, %144
  %146 = load i32, i32* %6, align 4
  %147 = icmp slt i32 %146, 9
  br i1 %147, label %148, label %187

148:                                              ; preds = %145
  store i32 0, i32* %7, align 4
  br label %149

149:                                              ; preds = %180, %148
  %150 = load i32, i32* %7, align 4
  %151 = icmp slt i32 %150, 9
  br i1 %151, label %152, label %183

152:                                              ; preds = %149
  %153 = load i32, i32* %7, align 4
  %154 = icmp slt i32 %153, 8
  br i1 %154, label %155, label %165

155:                                              ; preds = %152
  %156 = load i32, i32* %6, align 4
  %157 = sext i32 %156 to i64
  %158 = getelementptr inbounds [9 x [9 x i32]], [9 x [9 x i32]]* %2, i64 0, i64 %157
  %159 = load i32, i32* %7, align 4
  %160 = sext i32 %159 to i64
  %161 = getelementptr inbounds [9 x i32], [9 x i32]* %158, i64 0, i64 %160
  %162 = load i32, i32* %161, align 4
  %163 = call i32 (i8*, ...) @printf(i8* getelementptr inbounds ([3 x i8], [3 x i8]* @.str.1, i64 0, i64 0), i32 %162)
  %164 = call i32 (i8*, ...) @printf(i8* getelementptr inbounds ([2 x i8], [2 x i8]* @.str.2, i64 0, i64 0))
  br label %179

165:                                              ; preds = %152
  %166 = load i32, i32* %7, align 4
  %167 = icmp eq i32 %166, 8
  br i1 %167, label %168, label %178

168:                                              ; preds = %165
  %169 = load i32, i32* %6, align 4
  %170 = sext i32 %169 to i64
  %171 = getelementptr inbounds [9 x [9 x i32]], [9 x [9 x i32]]* %2, i64 0, i64 %170
  %172 = load i32, i32* %7, align 4
  %173 = sext i32 %172 to i64
  %174 = getelementptr inbounds [9 x i32], [9 x i32]* %171, i64 0, i64 %173
  %175 = load i32, i32* %174, align 4
  %176 = call i32 (i8*, ...) @printf(i8* getelementptr inbounds ([3 x i8], [3 x i8]* @.str.1, i64 0, i64 0), i32 %175)
  %177 = call i32 (i8*, ...) @printf(i8* getelementptr inbounds ([2 x i8], [2 x i8]* @.str.3, i64 0, i64 0))
  br label %178

178:                                              ; preds = %168, %165
  br label %179

179:                                              ; preds = %178, %155
  br label %180

180:                                              ; preds = %179
  %181 = load i32, i32* %7, align 4
  %182 = add nsw i32 %181, 1
  store i32 %182, i32* %7, align 4
  br label %149

183:                                              ; preds = %149
  br label %184

184:                                              ; preds = %183
  %185 = load i32, i32* %6, align 4
  %186 = add nsw i32 %185, 1
  store i32 %186, i32* %6, align 4
  br label %145

187:                                              ; preds = %145
  %188 = load i32, i32* %1, align 4
  ret i32 %188
}

; Function Attrs: argmemonly nounwind willreturn
declare void @llvm.memset.p0i8.i64(i8* nocapture writeonly, i8, i64, i1 immarg) #1

declare dso_local i32 @__isoc99_scanf(i8*, ...) #2

declare dso_local i32 @printf(i8*, ...) #2


!llvm.module.flags = !{!0}
!llvm.ident = !{!1}

!0 = !{i32 1, !"wchar_size", i32 4}
!1 = !{!"clang version 10.0.0-4ubuntu1 "}
